target datalayout = "e-m:e-p270:32:32-p271:32:32-p272:64:64-i64:64-i128:128-f80:128-n8:16:32:64-S128"
target triple = "x86_64-pc-linux-gnu"

%struct.SlruCtlData = type { ptr, i16, i8, i32, ptr, [64 x i8] }
%struct.CommitTimestampShared = type { i32, %struct.CommitTimestampEntry, i8 }
%struct.CommitTimestampEntry = type { i64, i16 }
%union.LWLockPadded = type { %struct.LWLock, [112 x i8] }
%struct.LWLock = type { i16, %struct.pg_atomic_uint32, %struct.proclist_head }
%struct.pg_atomic_uint32 = type { i32 }
%struct.proclist_head = type { i32, i32 }
%struct.TransamVariablesData = type { i32, i32, %struct.FullTransactionId, i32, i32, i32, i32, i32, i32, i32, i32, %struct.FullTransactionId, i64, i32 }
%struct.FullTransactionId = type { i64 }
%struct.SlruSharedData = type { i32, ptr, ptr, ptr, ptr, ptr, ptr, ptr, ptr, ptr, i32, %struct.pg_atomic_uint64, i32 }
%struct.pg_atomic_uint64 = type { i64 }

@commitTsShared = internal global ptr null, align 8
@MainLWLockArray = external global ptr, align 8
@TransamVariables = external global ptr, align 8
@CommitTsCtlData = internal global %struct.SlruCtlData zeroinitializer, align 8

; Function Attrs: nounwind uwtable
define internal void @TransactionIdSetCommitTs(i32 noundef %0, i64 noundef %1, i16 noundef zeroext %2, i32 noundef %3) #0 {
  %5 = alloca i32, align 4
  %6 = alloca i64, align 8
  %7 = alloca i16, align 2
  %8 = alloca i32, align 4
  %9 = alloca i32, align 4
  %10 = alloca %struct.CommitTimestampEntry, align 8
  store i32 %0, ptr %5, align 4
  store i64 %1, ptr %6, align 8
  store i16 %2, ptr %7, align 2
  store i32 %3, ptr %8, align 4
  call void @llvm.lifetime.start.p0(i64 4, ptr %9) #7
  %11 = load i32, ptr %5, align 4
  %12 = urem i32 %11, 819
  store i32 %12, ptr %9, align 4
  call void @llvm.lifetime.start.p0(i64 16, ptr %10) #7
  %13 = load i64, ptr %6, align 8
  %14 = getelementptr inbounds nuw %struct.CommitTimestampEntry, ptr %10, i32 0, i32 0
  store i64 %13, ptr %14, align 8
  %15 = load i16, ptr %7, align 2
  %16 = getelementptr inbounds nuw %struct.CommitTimestampEntry, ptr %10, i32 0, i32 1
  store i16 %15, ptr %16, align 8
  %17 = load ptr, ptr @CommitTsCtlData, align 8
  %18 = getelementptr inbounds nuw %struct.SlruSharedData, ptr %17, i32 0, i32 1
  %19 = load ptr, ptr %18, align 8
  %20 = load i32, ptr %8, align 4
  %21 = sext i32 %20 to i64
  %22 = getelementptr inbounds ptr, ptr %19, i64 %21
  %23 = load ptr, ptr %22, align 8
  %24 = load i32, ptr %9, align 4
  %25 = sext i32 %24 to i64
  %26 = mul i64 10, %25
  %27 = getelementptr inbounds nuw i8, ptr %23, i64 %26
  call void @llvm.memcpy.p0.p0.i64(ptr align 1 %27, ptr align 8 %10, i64 10, i1 false)
  call void @llvm.lifetime.end.p0(i64 16, ptr %10) #7
  call void @llvm.lifetime.end.p0(i64 4, ptr %9) #7
  ret void
}

; Function Attrs: inlinehint nounwind uwtable
define internal ptr @SimpleLruGetBankLock(ptr noundef %0, i64 noundef %1) #2 {
  %3 = alloca ptr, align 8
  %4 = alloca i64, align 8
  %5 = alloca i32, align 4
  store ptr %0, ptr %3, align 8
  store i64 %1, ptr %4, align 8
  call void @llvm.lifetime.start.p0(i64 4, ptr %5) #7
  %6 = load i64, ptr %4, align 8
  %7 = load ptr, ptr %3, align 8
  %8 = getelementptr inbounds nuw %struct.SlruCtlData, ptr %7, i32 0, i32 1
  %9 = load i16, ptr %8, align 8
  %10 = zext i16 %9 to i64
  %11 = srem i64 %6, %10
  %12 = trunc i64 %11 to i32
  store i32 %12, ptr %5, align 4
  %13 = load ptr, ptr %3, align 8
  %14 = getelementptr inbounds nuw %struct.SlruCtlData, ptr %13, i32 0, i32 0
  %15 = load ptr, ptr %14, align 8
  %16 = getelementptr inbounds nuw %struct.SlruSharedData, ptr %15, i32 0, i32 7
  %17 = load ptr, ptr %16, align 8
  %18 = load i32, ptr %5, align 4
  %19 = sext i32 %18 to i64
  %20 = getelementptr inbounds %union.LWLockPadded, ptr %17, i64 %19
  call void @llvm.lifetime.end.p0(i64 4, ptr %5) #7
  ret ptr %20
}

; Function Attrs: nounwind uwtable
define internal void @SetXidCommitTsInPage(i32 noundef %0, i32 noundef %1, ptr noundef %2, i64 noundef %3, i16 noundef zeroext %4, i64 noundef %5) #0 {
  %7 = alloca i32, align 4
  %8 = alloca i32, align 4
  %9 = alloca ptr, align 8
  %10 = alloca i64, align 8
  %11 = alloca i16, align 2
  %12 = alloca i64, align 8
  %13 = alloca ptr, align 8
  %14 = alloca i32, align 4
  %15 = alloca i32, align 4
  store i32 %0, ptr %7, align 4
  store i32 %1, ptr %8, align 4
  store ptr %2, ptr %9, align 8
  store i64 %3, ptr %10, align 8
  store i16 %4, ptr %11, align 2
  store i64 %5, ptr %12, align 8
  call void @llvm.lifetime.start.p0(i64 8, ptr %13) #7
  %16 = load i64, ptr %12, align 8
  %17 = call ptr @SimpleLruGetBankLock(ptr noundef @CommitTsCtlData, i64 noundef %16)
  store ptr %17, ptr %13, align 8
  call void @llvm.lifetime.start.p0(i64 4, ptr %14) #7
  call void @llvm.lifetime.start.p0(i64 4, ptr %15) #7
  %18 = load ptr, ptr %13, align 8
  %19 = call zeroext i1 @LWLockAcquire(ptr noundef %18, i32 noundef 0)
  %20 = load i64, ptr %12, align 8
  %21 = load i32, ptr %7, align 4
  %22 = call i32 @SimpleLruReadPage(ptr noundef @CommitTsCtlData, i64 noundef %20, i1 noundef zeroext true, i32 noundef %21)
  store i32 %22, ptr %14, align 4
  %23 = load i32, ptr %7, align 4
  %24 = load i64, ptr %10, align 8
  %25 = load i16, ptr %11, align 2
  %26 = load i32, ptr %14, align 4
  call void @TransactionIdSetCommitTs(i32 noundef %23, i64 noundef %24, i16 noundef zeroext %25, i32 noundef %26)
  store i32 0, ptr %15, align 4
  br label %27

27:                                               ; preds = %40, %6
  %28 = load i32, ptr %15, align 4
  %29 = load i32, ptr %8, align 4
  %30 = icmp slt i32 %28, %29
  br i1 %30, label %31, label %43

31:                                               ; preds = %27
  %32 = load ptr, ptr %9, align 8
  %33 = load i32, ptr %15, align 4
  %34 = sext i32 %33 to i64
  %35 = getelementptr inbounds i32, ptr %32, i64 %34
  %36 = load i32, ptr %35, align 4
  %37 = load i64, ptr %10, align 8
  %38 = load i16, ptr %11, align 2
  %39 = load i32, ptr %14, align 4
  call void @TransactionIdSetCommitTs(i32 noundef %36, i64 noundef %37, i16 noundef zeroext %38, i32 noundef %39)
  br label %40

40:                                               ; preds = %31
  %41 = load i32, ptr %15, align 4
  %42 = add i32 %41, 1
  store i32 %42, ptr %15, align 4
  br label %27, !llvm.loop !8

43:                                               ; preds = %27
  %44 = load ptr, ptr @CommitTsCtlData, align 8
  %45 = getelementptr inbounds nuw %struct.SlruSharedData, ptr %44, i32 0, i32 3
  %46 = load ptr, ptr %45, align 8
  %47 = load i32, ptr %14, align 4
  %48 = sext i32 %47 to i64
  %49 = getelementptr inbounds i8, ptr %46, i64 %48
  store i8 1, ptr %49, align 1
  %50 = load ptr, ptr %13, align 8
  call void @LWLockRelease(ptr noundef %50)
  call void @llvm.lifetime.end.p0(i64 4, ptr %15) #7
  call void @llvm.lifetime.end.p0(i64 4, ptr %14) #7
  call void @llvm.lifetime.end.p0(i64 8, ptr %13) #7
  ret void
}

; Function Attrs: inlinehint nounwind uwtable
define internal i64 @TransactionIdToCTsPage(i32 noundef %0) #2 {
  %2 = alloca i32, align 4
  store i32 %0, ptr %2, align 4
  %3 = load i32, ptr %2, align 4
  %4 = zext i32 %3 to i64
  %5 = sdiv i64 %4, 819
  ret i64 %5
}

; Function Attrs: nounwind uwtable
define dso_local void @TransactionTreeSetCommitTsData(i32 noundef %0, i32 noundef %1, ptr noundef %2, i64 noundef %3, i16 noundef zeroext %4) #0 {
  %6 = alloca i32, align 4
  %7 = alloca i32, align 4
  %8 = alloca ptr, align 8
  %9 = alloca i64, align 8
  %10 = alloca i16, align 2
  %11 = alloca i32, align 4
  %12 = alloca i32, align 4
  %13 = alloca i32, align 4
  %14 = alloca i32, align 4
  %15 = alloca i64, align 8
  %16 = alloca i32, align 4
  store i32 %0, ptr %6, align 4
  store i32 %1, ptr %7, align 4
  store ptr %2, ptr %8, align 8
  store i64 %3, ptr %9, align 8
  store i16 %4, ptr %10, align 2
  call void @llvm.lifetime.start.p0(i64 4, ptr %11) #7
  call void @llvm.lifetime.start.p0(i64 4, ptr %12) #7
  call void @llvm.lifetime.start.p0(i64 4, ptr %13) #7
  %17 = load ptr, ptr @commitTsShared, align 8
  %18 = getelementptr inbounds nuw %struct.CommitTimestampShared, ptr %17, i32 0, i32 2
  %19 = load i8, ptr %18, align 8, !range !4, !noundef !5
  %20 = trunc i8 %19 to i1
  br i1 %20, label %22, label %21

21:                                               ; preds = %5
  store i32 1, ptr %14, align 4
  br label %112

22:                                               ; preds = %5
  %23 = load i32, ptr %7, align 4
  %24 = icmp sgt i32 %23, 0
  br i1 %24, label %25, label %32

25:                                               ; preds = %22
  %26 = load ptr, ptr %8, align 8
  %27 = load i32, ptr %7, align 4
  %28 = sub i32 %27, 1
  %29 = sext i32 %28 to i64
  %30 = getelementptr inbounds i32, ptr %26, i64 %29
  %31 = load i32, ptr %30, align 4
  store i32 %31, ptr %13, align 4
  br label %34

32:                                               ; preds = %22
  %33 = load i32, ptr %6, align 4
  store i32 %33, ptr %13, align 4
  br label %34

34:                                               ; preds = %32, %25
  %35 = load i32, ptr %6, align 4
  store i32 %35, ptr %12, align 4
  store i32 0, ptr %11, align 4
  br label %36

36:                                               ; preds = %84, %34
  call void @llvm.lifetime.start.p0(i64 8, ptr %15) #7
  %37 = load i32, ptr %12, align 4
  %38 = call i64 @TransactionIdToCTsPage(i32 noundef %37)
  store i64 %38, ptr %15, align 8
  call void @llvm.lifetime.start.p0(i64 4, ptr %16) #7
  %39 = load i32, ptr %11, align 4
  store i32 %39, ptr %16, align 4
  br label %40

40:                                               ; preds = %55, %36
  %41 = load i32, ptr %16, align 4
  %42 = load i32, ptr %7, align 4
  %43 = icmp slt i32 %41, %42
  br i1 %43, label %44, label %58

44:                                               ; preds = %40
  %45 = load ptr, ptr %8, align 8
  %46 = load i32, ptr %16, align 4
  %47 = sext i32 %46 to i64
  %48 = getelementptr inbounds i32, ptr %45, i64 %47
  %49 = load i32, ptr %48, align 4
  %50 = call i64 @TransactionIdToCTsPage(i32 noundef %49)
  %51 = load i64, ptr %15, align 8
  %52 = icmp ne i64 %50, %51
  br i1 %52, label %53, label %54

53:                                               ; preds = %44
  br label %58

54:                                               ; preds = %44
  br label %55

55:                                               ; preds = %54
  %56 = load i32, ptr %16, align 4
  %57 = add i32 %56, 1
  store i32 %57, ptr %16, align 4
  br label %40, !llvm.loop !6

58:                                               ; preds = %53, %40
  %59 = load i32, ptr %12, align 4
  %60 = load i32, ptr %16, align 4
  %61 = load i32, ptr %11, align 4
  %62 = sub i32 %60, %61
  %63 = load ptr, ptr %8, align 8
  %64 = load i32, ptr %11, align 4
  %65 = sext i32 %64 to i64
  %66 = getelementptr inbounds i32, ptr %63, i64 %65
  %67 = load i64, ptr %9, align 8
  %68 = load i16, ptr %10, align 2
  %69 = load i64, ptr %15, align 8
  call void @SetXidCommitTsInPage(i32 noundef %59, i32 noundef %62, ptr noundef %66, i64 noundef %67, i16 noundef zeroext %68, i64 noundef %69)
  %70 = load i32, ptr %16, align 4
  %71 = load i32, ptr %7, align 4
  %72 = icmp sge i32 %70, %71
  br i1 %72, label %73, label %74

73:                                               ; preds = %58
  store i32 2, ptr %14, align 4
  br label %82

74:                                               ; preds = %58
  %75 = load ptr, ptr %8, align 8
  %76 = load i32, ptr %16, align 4
  %77 = sext i32 %76 to i64
  %78 = getelementptr inbounds i32, ptr %75, i64 %77
  %79 = load i32, ptr %78, align 4
  store i32 %79, ptr %12, align 4
  %80 = load i32, ptr %16, align 4
  %81 = add i32 %80, 1
  store i32 %81, ptr %11, align 4
  store i32 0, ptr %14, align 4
  br label %82

82:                                               ; preds = %74, %73
  call void @llvm.lifetime.end.p0(i64 4, ptr %16) #7
  call void @llvm.lifetime.end.p0(i64 8, ptr %15) #7
  %83 = load i32, ptr %14, align 4
  switch i32 %83, label %115 [
    i32 0, label %84
    i32 2, label %85
  ]

84:                                               ; preds = %82
  br label %36

85:                                               ; preds = %82
  %86 = load ptr, ptr @MainLWLockArray, align 8
  %87 = getelementptr inbounds %union.LWLockPadded, ptr %86, i64 39
  %88 = call zeroext i1 @LWLockAcquire(ptr noundef %87, i32 noundef 0)
  %89 = load i32, ptr %6, align 4
  %90 = load ptr, ptr @commitTsShared, align 8
  %91 = getelementptr inbounds nuw %struct.CommitTimestampShared, ptr %90, i32 0, i32 0
  store i32 %89, ptr %91, align 8
  %92 = load i64, ptr %9, align 8
  %93 = load ptr, ptr @commitTsShared, align 8
  %94 = getelementptr inbounds nuw %struct.CommitTimestampShared, ptr %93, i32 0, i32 1
  %95 = getelementptr inbounds nuw %struct.CommitTimestampEntry, ptr %94, i32 0, i32 0
  store i64 %92, ptr %95, align 8
  %96 = load i16, ptr %10, align 2
  %97 = load ptr, ptr @commitTsShared, align 8
  %98 = getelementptr inbounds nuw %struct.CommitTimestampShared, ptr %97, i32 0, i32 1
  %99 = getelementptr inbounds nuw %struct.CommitTimestampEntry, ptr %98, i32 0, i32 1
  store i16 %96, ptr %99, align 8
  %100 = load ptr, ptr @TransamVariables, align 8
  %101 = getelementptr inbounds nuw %struct.TransamVariablesData, ptr %100, i32 0, i32 10
  %102 = load i32, ptr %101, align 4
  %103 = load i32, ptr %13, align 4
  %104 = call zeroext i1 @TransactionIdPrecedes(i32 noundef %102, i32 noundef %103)
  br i1 %104, label %105, label %109

105:                                              ; preds = %85
  %106 = load i32, ptr %13, align 4
  %107 = load ptr, ptr @TransamVariables, align 8
  %108 = getelementptr inbounds nuw %struct.TransamVariablesData, ptr %107, i32 0, i32 10
  store i32 %106, ptr %108, align 4
  br label %109

109:                                              ; preds = %105, %85
  %110 = load ptr, ptr @MainLWLockArray, align 8
  %111 = getelementptr inbounds %union.LWLockPadded, ptr %110, i64 39
  call void @LWLockRelease(ptr noundef %111)
  store i32 0, ptr %14, align 4
  br label %112

112:                                              ; preds = %109, %21
  call void @llvm.lifetime.end.p0(i64 4, ptr %13) #7
  call void @llvm.lifetime.end.p0(i64 4, ptr %12) #7
  call void @llvm.lifetime.end.p0(i64 4, ptr %11) #7
  %113 = load i32, ptr %14, align 4
  switch i32 %113, label %115 [
    i32 0, label %114
    i32 1, label %114
  ]

114:                                              ; preds = %112, %112
  ret void

115:                                              ; preds = %112, %82
  unreachable
}