; Function Attrs: nounwind uwtable
define dso_local void @TransactionTreeSetCommitTsData(i32 noundef %0, i32 noundef %1, ptr noundef readonly captures(none) %2, i64 noundef %3, i16 noundef zeroext %4) local_unnamed_addr #0 {
  %6 = load ptr, ptr @commitTsShared, align 8
  %7 = getelementptr inbounds nuw i8, ptr %6, i64 24
  %8 = load i8, ptr %7, align 8, !range !4, !noundef !5
  %9 = trunc nuw i8 %8 to i1
  br i1 %9, label %10, label %87

10:                                               ; preds = %5
  %11 = icmp sgt i32 %1, 0
  br i1 %11, label %12, label %17

12:                                               ; preds = %10
  %13 = zext nneg i32 %1 to i64
  %14 = getelementptr i32, ptr %2, i64 %13
  %15 = getelementptr i8, ptr %14, i64 -4
  %16 = load i32, ptr %15, align 4
  br label %17

17:                                               ; preds = %10, %12
  %.033 = phi i32 [ %16, %12 ], [ %0, %10 ]
  %18 = sext i32 %1 to i64
  br label %19

19:                                               ; preds = %65, %17
  %.034 = phi i32 [ %0, %17 ], [ %68, %65 ]
  %.031 = phi i32 [ 0, %17 ], [ %69, %65 ]
  %20 = udiv i32 %.034, 819
  %21 = urem i32 %.034, 819
  %22 = zext nneg i32 %20 to i64
  %23 = icmp slt i32 %.031, %1
  %24 = sext i32 %.031 to i64
  br i1 %23, label %.lr.ph, label %._crit_edge

.lr.ph:                                           ; preds = %19, %28
  %indvars.iv = phi i64 [ %indvars.iv.next, %28 ], [ %24, %19 ]
  %25 = getelementptr inbounds i32, ptr %2, i64 %indvars.iv
  %26 = load i32, ptr %25, align 4
  %27 = udiv i32 %26, 819
  %.not.not = icmp eq i32 %27, %20
  br i1 %.not.not, label %28, label %._crit_edge.loopexit.split.loop.exit

28:                                               ; preds = %.lr.ph
  %indvars.iv.next = add nsw i64 %indvars.iv, 1
  %exitcond.not = icmp eq i64 %indvars.iv.next, %18
  br i1 %exitcond.not, label %._crit_edge, label %.lr.ph, !llvm.loop !6

._crit_edge.loopexit.split.loop.exit:             ; preds = %.lr.ph
  %29 = trunc nsw i64 %indvars.iv to i32
  br label %._crit_edge

._crit_edge:                                      ; preds = %28, %._crit_edge.loopexit.split.loop.exit, %19
  %.0.lcssa = phi i32 [ %.031, %19 ], [ %29, %._crit_edge.loopexit.split.loop.exit ], [ %1, %28 ]
  %.lcssa = phi i1 [ false, %19 ], [ true, %._crit_edge.loopexit.split.loop.exit ], [ false, %28 ]
  %30 = sub i32 %.0.lcssa, %.031
  %31 = getelementptr inbounds i32, ptr %2, i64 %24
  %32 = load i16, ptr getelementptr inbounds nuw (i8, ptr @CommitTsCtlData, i64 8), align 8
  %.rhs.trunc.i = zext i16 %32 to i32
  %33 = urem i32 %20, %.rhs.trunc.i
  %34 = load ptr, ptr @CommitTsCtlData, align 8
  %35 = getelementptr inbounds nuw i8, ptr %34, i64 56
  %36 = load ptr, ptr %35, align 8
  %37 = shl nuw nsw i32 %33, 7
  %38 = zext nneg i32 %37 to i64
  %39 = getelementptr inbounds nuw i8, ptr %36, i64 %38
  %40 = tail call zeroext i1 @LWLockAcquire(ptr noundef %39, i32 noundef 0) #9
  %41 = tail call i32 @SimpleLruReadPage(ptr noundef nonnull @CommitTsCtlData, i64 noundef range(i64 0, 5244161) %22, i1 noundef zeroext true, i32 noundef %.034) #9
  %42 = load ptr, ptr @CommitTsCtlData, align 8
  %43 = getelementptr inbounds nuw i8, ptr %42, i64 8
  %44 = load ptr, ptr %43, align 8
  %45 = sext i32 %41 to i64
  %46 = getelementptr inbounds ptr, ptr %44, i64 %45
  %47 = load ptr, ptr %46, align 8
  %narrow.i.i = mul nuw nsw i32 %21, 10
  %48 = zext nneg i32 %narrow.i.i to i64
  %49 = getelementptr inbounds nuw i8, ptr %47, i64 %48
  store i64 %3, ptr %49, align 1
  %.sroa.4.0..sroa_idx.i.i = getelementptr inbounds nuw i8, ptr %49, i64 8
  store i16 %4, ptr %.sroa.4.0..sroa_idx.i.i, align 1
  %50 = icmp sgt i32 %30, 0
  br i1 %50, label %.lr.ph.preheader.i, label %SetXidCommitTsInPage.exit

.lr.ph.preheader.i:                               ; preds = %._crit_edge
  %wide.trip.count.i = zext nneg i32 %30 to i64
  br label %.lr.ph.i

.lr.ph.i:                                         ; preds = %.lr.ph.i, %.lr.ph.preheader.i
  %indvars.iv.i = phi i64 [ 0, %.lr.ph.preheader.i ], [ %indvars.iv.next.i, %.lr.ph.i ]
  %51 = getelementptr inbounds nuw i32, ptr %31, i64 %indvars.iv.i
  %52 = load i32, ptr %51, align 4
  %53 = urem i32 %52, 819
  %54 = load ptr, ptr @CommitTsCtlData, align 8
  %55 = getelementptr inbounds nuw i8, ptr %54, i64 8
  %56 = load ptr, ptr %55, align 8
  %57 = getelementptr inbounds ptr, ptr %56, i64 %45
  %58 = load ptr, ptr %57, align 8
  %narrow.i17.i = mul nuw nsw i32 %53, 10
  %59 = zext nneg i32 %narrow.i17.i to i64
  %60 = getelementptr inbounds nuw i8, ptr %58, i64 %59
  store i64 %3, ptr %60, align 1
  %.sroa.4.0..sroa_idx.i18.i = getelementptr inbounds nuw i8, ptr %60, i64 8
  store i16 %4, ptr %.sroa.4.0..sroa_idx.i18.i, align 1
  %indvars.iv.next.i = add nuw nsw i64 %indvars.iv.i, 1
  %exitcond.not.i = icmp eq i64 %indvars.iv.next.i, %wide.trip.count.i
  br i1 %exitcond.not.i, label %SetXidCommitTsInPage.exit, label %.lr.ph.i, !llvm.loop !8

SetXidCommitTsInPage.exit:                        ; preds = %.lr.ph.i, %._crit_edge
  %61 = load ptr, ptr @CommitTsCtlData, align 8
  %62 = getelementptr inbounds nuw i8, ptr %61, i64 24
  %63 = load ptr, ptr %62, align 8
  %64 = getelementptr inbounds i8, ptr %63, i64 %45
  store i8 1, ptr %64, align 1
  tail call void @LWLockRelease(ptr noundef %39) #9
  br i1 %.lcssa, label %65, label %70

65:                                               ; preds = %SetXidCommitTsInPage.exit
  %66 = sext i32 %.0.lcssa to i64
  %67 = getelementptr inbounds i32, ptr %2, i64 %66
  %68 = load i32, ptr %67, align 4
  %69 = add nsw i32 %.0.lcssa, 1
  br label %19

70:                                               ; preds = %SetXidCommitTsInPage.exit
  %71 = load ptr, ptr @MainLWLockArray, align 8
  %72 = getelementptr inbounds nuw i8, ptr %71, i64 4992
  %73 = tail call zeroext i1 @LWLockAcquire(ptr noundef nonnull %72, i32 noundef 0) #9
  %74 = load ptr, ptr @commitTsShared, align 8
  store i32 %0, ptr %74, align 8
  %75 = getelementptr inbounds nuw i8, ptr %74, i64 8
  store i64 %3, ptr %75, align 8
  %76 = getelementptr inbounds nuw i8, ptr %74, i64 16
  store i16 %4, ptr %76, align 8
  %77 = load ptr, ptr @TransamVariables, align 8
  %78 = getelementptr inbounds nuw i8, ptr %77, i64 44
  %79 = load i32, ptr %78, align 4
  %80 = tail call zeroext i1 @TransactionIdPrecedes(i32 noundef %79, i32 noundef %.033) #9
  br i1 %80, label %81, label %84

81:                                               ; preds = %70
  %82 = load ptr, ptr @TransamVariables, align 8
  %83 = getelementptr inbounds nuw i8, ptr %82, i64 44
  store i32 %.033, ptr %83, align 4
  br label %84

84:                                               ; preds = %81, %70
  %85 = load ptr, ptr @MainLWLockArray, align 8
  %86 = getelementptr inbounds nuw i8, ptr %85, i64 4992
  tail call void @LWLockRelease(ptr noundef nonnull %86) #9
  br label %87

87:                                               ; preds = %5, %84
  ret void
}